; ModuleID = '58/1156.c'
source_filename = "58/1156.c"
target datalayout = "e-m:e-p270:32:32-p271:32:32-p272:64:64-i64:64-f80:128-n8:16:32:64-S128"
target triple = "x86_64-pc-linux-gnu"

@.str = private unnamed_addr constant [4 x i8] c"%d\0A\00", align 1

; Function Attrs: noinline nounwind uwtable
define dso_local i32 @main() #0 {
  %1 = alloca i32, align 4
  %2 = alloca i32, align 4
  %3 = alloca i32, align 4
  %4 = alloca i8*, align 8
  %5 = alloca i8*, align 8
  %6 = alloca i64, align 8
  %7 = alloca i32, align 4
  store i32 0, i32* %1, align 4
  %8 = call i32 (i8*, ...) @__isoc99_scanf(i8* getelementptr inbounds ([4 x i8], [4 x i8]* @.str, i64 0, i64 0), i32* %2)
  %9 = load i32, i32* %2, align 4
  %10 = zext i32 %9 to i64
  %11 = call i8* @llvm.stacksave()
  store i8* %11, i8** %5, align 8
  %12 = alloca [81 x i8], i64 %10, align 16
  store i64 %10, i64* %6, align 8
  store i32 0, i32* %3, align 4
  br label %13

13:                                               ; preds = %23, %0
  %14 = load i32, i32* %3, align 4
  %15 = load i32, i32* %2, align 4
  %16 = icmp slt i32 %14, %15
  br i1 %16, label %17, label %26

17:                                               ; preds = %13
  %18 = load i32, i32* %3, align 4
  %19 = sext i32 %18 to i64
  %20 = getelementptr inbounds [81 x i8], [81 x i8]* %12, i64 %19
  %21 = getelementptr inbounds [81 x i8], [81 x i8]* %20, i64 0, i64 0
  %22 = call i32 (i8*, ...) bitcast (i32 (...)* @gets to i32 (i8*, ...)*)(i8* %21)
  br label %23

23:                                               ; preds = %17
  %24 = load i32, i32* %3, align 4
  %25 = add nsw i32 %24, 1
  store i32 %25, i32* %3, align 4
  br label %13

26:                                               ; preds = %13
  store i32 0, i32* %3, align 4
  br label %27

27:                                               ; preds = %112, %26
  %28 = load i32, i32* %3, align 4
  %29 = load i32, i32* %2, align 4
  %30 = icmp slt i32 %28, %29
  br i1 %30, label %31, label %115

31:                                               ; preds = %27
  store i32 1, i32* %7, align 4
  %32 = load i32, i32* %3, align 4
  %33 = sext i32 %32 to i64
  %34 = getelementptr inbounds [81 x i8], [81 x i8]* %12, i64 %33
  %35 = getelementptr inbounds [81 x i8], [81 x i8]* %34, i64 0, i64 0
  store i8* %35, i8** %4, align 8
  %36 = load i8*, i8** %4, align 8
  %37 = load i8, i8* %36, align 1
  %38 = sext i8 %37 to i32
  %39 = icmp sge i32 %38, 65
  br i1 %39, label %40, label %45

40:                                               ; preds = %31
  %41 = load i8*, i8** %4, align 8
  %42 = load i8, i8* %41, align 1
  %43 = sext i8 %42 to i32
  %44 = icmp sle i32 %43, 90
  br i1 %44, label %60, label %45

45:                                               ; preds = %40, %31
  %46 = load i8*, i8** %4, align 8
  %47 = load i8, i8* %46, align 1
  %48 = sext i8 %47 to i32
  %49 = icmp eq i32 %48, 95
  br i1 %49, label %60, label %50

50:                                               ; preds = %45
  %51 = load i8*, i8** %4, align 8
  %52 = load i8, i8* %51, align 1
  %53 = sext i8 %52 to i32
  %54 = icmp sge i32 %53, 95
  br i1 %54, label %55, label %108

55:                                               ; preds = %50
  %56 = load i8*, i8** %4, align 8
  %57 = load i8, i8* %56, align 1
  %58 = sext i8 %57 to i32
  %59 = icmp sle i32 %58, 122
  br i1 %59, label %60, label %108

60:                                               ; preds = %55, %45, %40
  %61 = load i8*, i8** %4, align 8
  %62 = getelementptr inbounds i8, i8* %61, i32 1
  store i8* %62, i8** %4, align 8
  br label %63

63:                                               ; preds = %104, %60
  %64 = load i8*, i8** %4, align 8
  %65 = load i8, i8* %64, align 1
  %66 = sext i8 %65 to i32
  %67 = icmp ne i32 %66, 0
  br i1 %67, label %68, label %107

68:                                               ; preds = %63
  %69 = load i8*, i8** %4, align 8
  %70 = load i8, i8* %69, align 1
  %71 = sext i8 %70 to i32
  %72 = icmp slt i32 %71, 48
  br i1 %72, label %103, label %73

73:                                               ; preds = %68
  %74 = load i8*, i8** %4, align 8
  %75 = load i8, i8* %74, align 1
  %76 = sext i8 %75 to i32
  %77 = icmp sgt i32 %76, 57
  br i1 %77, label %78, label %83

78:                                               ; preds = %73
  %79 = load i8*, i8** %4, align 8
  %80 = load i8, i8* %79, align 1
  %81 = sext i8 %80 to i32
  %82 = icmp slt i32 %81, 65
  br i1 %82, label %103, label %83

83:                                               ; preds = %78, %73
  %84 = load i8*, i8** %4, align 8
  %85 = load i8, i8* %84, align 1
  %86 = sext i8 %85 to i32
  %87 = icmp sgt i32 %86, 90
  br i1 %87, label %88, label %98

88:                                               ; preds = %83
  %89 = load i8*, i8** %4, align 8
  %90 = load i8, i8* %89, align 1
  %91 = sext i8 %90 to i32
  %92 = icmp ne i32 %91, 95
  br i1 %92, label %93, label %98

93:                                               ; preds = %88
  %94 = load i8*, i8** %4, align 8
  %95 = load i8, i8* %94, align 1
  %96 = sext i8 %95 to i32
  %97 = icmp slt i32 %96, 95
  br i1 %97, label %103, label %98

98:                                               ; preds = %93, %88, %83
  %99 = load i8*, i8** %4, align 8
  %100 = load i8, i8* %99, align 1
  %101 = sext i8 %100 to i32
  %102 = icmp sgt i32 %101, 122
  br i1 %102, label %103, label %104

103:                                              ; preds = %98, %93, %78, %68
  store i32 0, i32* %7, align 4
  br label %107

104:                                              ; preds = %98
  %105 = load i8*, i8** %4, align 8
  %106 = getelementptr inbounds i8, i8* %105, i32 1
  store i8* %106, i8** %4, align 8
  br label %63

107:                                              ; preds = %103, %63
  br label %109

108:                                              ; preds = %55, %50
  store i32 0, i32* %7, align 4
  br label %109

109:                                              ; preds = %108, %107
  %110 = load i32, i32* %7, align 4
  %111 = call i32 (i8*, ...) @printf(i8* getelementptr inbounds ([4 x i8], [4 x i8]* @.str, i64 0, i64 0), i32 %110)
  br label %112

112:                                              ; preds = %109
  %113 = load i32, i32* %3, align 4
  %114 = add nsw i32 %113, 1
  store i32 %114, i32* %3, align 4
  br label %27

115:                                              ; preds = %27
  %116 = load i8*, i8** %5, align 8
  call void @llvm.stackrestore(i8* %116)
  %117 = load i32, i32* %1, align 4
  ret i32 %117
}

declare dso_local i32 @__isoc99_scanf(i8*, ...) #1

; Function Attrs: nounwind
declare i8* @llvm.stacksave() #2

declare dso_local i32 @gets(...) #1

declare dso_local i32 @printf(i8*, ...) #1

; Function Attrs: nounwind
declare void @llvm.stackrestore(i8*) #2


!llvm.module.flags = !{!0}
!llvm.ident = !{!1}

!0 = !{i32 1, !"wchar_size", i32 4}
!1 = !{!"clang version 10.0.0-4ubuntu1 "}
