; ModuleID = 'source-C-CXX/57/1156.c'
source_filename = "source-C-CXX/57/1156.c"
target datalayout = "e-m:e-p270:32:32-p271:32:32-p272:64:64-i64:64-f80:128-n8:16:32:64-S128"
target triple = "x86_64-pc-linux-gnu"

@.str = private unnamed_addr constant [4 x i8] c"%d\0A\00", align 1

; Function Attrs: nounwind sspstrong uwtable
define dso_local i32 @main() local_unnamed_addr #0 {
  %1 = alloca i32, align 4
  %2 = bitcast i32* %1 to i8*
  call void @llvm.lifetime.start.p0i8(i64 4, i8* nonnull %2) #5
  %3 = call i32 (i8*, ...) @__isoc99_scanf(i8* getelementptr inbounds ([4 x i8], [4 x i8]* @.str, i64 0, i64 0), i32* nonnull %1)
  %4 = load i32, i32* %1, align 4, !tbaa !5
  %5 = zext i32 %4 to i64
  %6 = call i8* @llvm.stacksave()
  %7 = alloca [81 x i8], i64 %5, align 16
  %8 = load i32, i32* %1, align 4, !tbaa !5
  %9 = icmp sgt i32 %8, 0
  br i1 %9, label %12, label %54

10:                                               ; preds = %12
  %11 = icmp sgt i32 %17, 0
  br i1 %11, label %20, label %54

12:                                               ; preds = %0, %12
  %13 = phi i64 [ %16, %12 ], [ 0, %0 ]
  %14 = getelementptr inbounds [81 x i8], [81 x i8]* %7, i64 %13, i64 0
  %15 = call i32 (i8*, ...) bitcast (i32 (...)* @gets to i32 (i8*, ...)*)(i8* nonnull %14) #5
  %16 = add nuw nsw i64 %13, 1
  %17 = load i32, i32* %1, align 4, !tbaa !5
  %18 = sext i32 %17 to i64
  %19 = icmp slt i64 %16, %18
  br i1 %19, label %12, label %10, !llvm.loop !9

20:                                               ; preds = %10, %47
  %21 = phi i64 [ %50, %47 ], [ 0, %10 ]
  %22 = getelementptr inbounds [81 x i8], [81 x i8]* %7, i64 %21, i64 0
  %23 = load i8, i8* %22, align 1, !tbaa !11
  %24 = add i8 %23, -65
  %25 = icmp ult i8 %24, 26
  %26 = icmp eq i8 %23, 95
  %27 = or i1 %26, %25
  %28 = add i8 %23, -95
  %29 = icmp ult i8 %28, 28
  %30 = or i1 %29, %27
  br i1 %30, label %31, label %47

31:                                               ; preds = %20
  %32 = getelementptr inbounds [81 x i8], [81 x i8]* %7, i64 %21, i64 1
  %33 = load i8, i8* %32, align 1, !tbaa !11
  %34 = icmp eq i8 %33, 0
  br i1 %34, label %47, label %35

35:                                               ; preds = %31, %43
  %36 = phi i8 [ %45, %43 ], [ %33, %31 ]
  %37 = phi i8* [ %44, %43 ], [ %32, %31 ]
  %38 = icmp slt i8 %36, 48
  %39 = add i8 %36, -58
  %40 = icmp ult i8 %39, 7
  %41 = or i1 %38, %40
  br i1 %41, label %47, label %42

42:                                               ; preds = %35
  switch i8 %36, label %43 [
    i8 127, label %47
    i8 126, label %47
    i8 125, label %47
    i8 124, label %47
    i8 123, label %47
    i8 94, label %47
    i8 93, label %47
    i8 92, label %47
    i8 91, label %47
  ]

43:                                               ; preds = %42
  %44 = getelementptr inbounds i8, i8* %37, i64 1
  %45 = load i8, i8* %44, align 1, !tbaa !11
  %46 = icmp eq i8 %45, 0
  br i1 %46, label %47, label %35, !llvm.loop !12

47:                                               ; preds = %43, %35, %42, %42, %42, %42, %42, %42, %42, %42, %42, %31, %20
  %48 = phi i32 [ 0, %20 ], [ 1, %31 ], [ 1, %43 ], [ 0, %35 ], [ 0, %42 ], [ 0, %42 ], [ 0, %42 ], [ 0, %42 ], [ 0, %42 ], [ 0, %42 ], [ 0, %42 ], [ 0, %42 ], [ 0, %42 ]
  %49 = call i32 (i8*, ...) @printf(i8* nonnull dereferenceable(1) getelementptr inbounds ([4 x i8], [4 x i8]* @.str, i64 0, i64 0), i32 %48)
  %50 = add nuw nsw i64 %21, 1
  %51 = load i32, i32* %1, align 4, !tbaa !5
  %52 = sext i32 %51 to i64
  %53 = icmp slt i64 %50, %52
  br i1 %53, label %20, label %54, !llvm.loop !13

54:                                               ; preds = %47, %0, %10
  call void @llvm.stackrestore(i8* %6)
  call void @llvm.lifetime.end.p0i8(i64 4, i8* nonnull %2) #5
  ret i32 0
}

; Function Attrs: argmemonly mustprogress nofree nosync nounwind willreturn
declare void @llvm.lifetime.start.p0i8(i64 immarg, i8* nocapture) #1

; Function Attrs: nofree nounwind
declare noundef i32 @__isoc99_scanf(i8* nocapture noundef readonly, ...) local_unnamed_addr #2

; Function Attrs: mustprogress nofree nosync nounwind willreturn
declare i8* @llvm.stacksave() #3

declare i32 @gets(...) local_unnamed_addr #4

; Function Attrs: nofree nounwind
declare noundef i32 @printf(i8* nocapture noundef readonly, ...) local_unnamed_addr #2

; Function Attrs: argmemonly mustprogress nofree nosync nounwind willreturn
declare void @llvm.lifetime.end.p0i8(i64 immarg, i8* nocapture) #1

; Function Attrs: mustprogress nofree nosync nounwind willreturn
declare void @llvm.stackrestore(i8*) #3


!llvm.module.flags = !{!0, !1, !2, !3}
!llvm.ident = !{!4}

!0 = !{i32 1, !"wchar_size", i32 4}
!1 = !{i32 7, !"PIC Level", i32 2}
!2 = !{i32 7, !"PIE Level", i32 2}
!3 = !{i32 7, !"uwtable", i32 1}
!4 = !{!"clang version 13.0.0"}
!5 = !{!6, !6, i64 0}
!6 = !{!"int", !7, i64 0}
!7 = !{!"omnipotent char", !8, i64 0}
!8 = !{!"Simple C/C++ TBAA"}
!9 = distinct !{!9, !10}
!10 = !{!"llvm.loop.mustprogress"}
!11 = !{!7, !7, i64 0}
!12 = distinct !{!12, !10}
!13 = distinct !{!13, !10}
